target datalayout = "e-m:e-p270:32:32-p271:32:32-p272:64:64-i64:64-i128:128-f80:128-n8:16:32:64-S128"
target triple = "x86_64-pc-linux-gnu"

%class.QString = type { %struct.QArrayDataPointer }
%struct.QArrayDataPointer = type { ptr, ptr, i64 }
%class.QObject = type { ptr, %class.QScopedPointer }
%class.QScopedPointer = type { ptr }
%struct.nstime_t = type { i64, i32 }
%class.QBrush = type { %"class.std::unique_ptr" }
%"class.std::unique_ptr" = type { %"struct.std::__uniq_ptr_data" }
%"struct.std::__uniq_ptr_data" = type { %"class.std::__uniq_ptr_impl" }
%"class.std::__uniq_ptr_impl" = type { %"class.std::tuple" }
%"class.std::tuple" = type { %"struct.std::_Tuple_impl" }
%"struct.std::_Tuple_impl" = type { %"struct.std::_Head_base.28" }
%"struct.std::_Head_base.28" = type { ptr }
%class.IOGraph = type <{ %class.QObject, i32, i32, ptr, %class.QString, %class.QString, i8, i8, i8, [5 x i8], ptr, ptr, %class.QString, %class.QString, %class.QBrush, i32, [4 x i8], %class.QString, i32, i32, %struct.nstime_t, i8, [7 x i8], %"class.std::vector", i32, [4 x i8] }>
%"class.std::vector" = type { %"struct.std::_Vector_base" }
%"struct.std::_Vector_base" = type { %"struct.std::_Vector_base<_io_graph_item_t, std::allocator<_io_graph_item_t>>::_Vector_impl" }
%"struct.std::_Vector_base<_io_graph_item_t, std::allocator<_io_graph_item_t>>::_Vector_impl" = type { %"struct.std::_Vector_base<_io_graph_item_t, std::allocator<_io_graph_item_t>>::_Vector_impl_data" }
%"struct.std::_Vector_base<_io_graph_item_t, std::allocator<_io_graph_item_t>>::_Vector_impl_data" = type { ptr, ptr, ptr }

; Function Attrs: mustprogress null_pointer_is_valid sspstrong uwtable
define noundef zeroext i1 @_ZN7IOGraph11addToLegendEv(ptr noundef align 8 dereferenceable_or_null(252) %0) #3 align 2 {
  %2 = alloca i1, align 1
  %3 = alloca ptr, align 8
  store ptr %0, ptr %3, align 8
  %4 = load ptr, ptr %3, align 8
  %5 = getelementptr inbounds nuw %class.IOGraph, ptr %4, i32 0, i32 10
  %6 = load ptr, ptr %5, align 8
  %7 = icmp ne ptr %6, null
  br i1 %7, label %8, label %12

8:                                                ; preds = %1
  %9 = getelementptr inbounds nuw %class.IOGraph, ptr %4, i32 0, i32 10
  %10 = load ptr, ptr %9, align 8
  %11 = call noundef zeroext i1 @_ZN20QCPAbstractPlottable11addToLegendEv(ptr noundef align 8 dereferenceable_or_null(184) %10)
  store i1 %11, ptr %2, align 1
  br label %21

12:                                               ; preds = %1
  %13 = getelementptr inbounds nuw %class.IOGraph, ptr %4, i32 0, i32 11
  %14 = load ptr, ptr %13, align 8
  %15 = icmp ne ptr %14, null
  br i1 %15, label %16, label %20

16:                                               ; preds = %12
  %17 = getelementptr inbounds nuw %class.IOGraph, ptr %4, i32 0, i32 11
  %18 = load ptr, ptr %17, align 8
  %19 = call noundef zeroext i1 @_ZN20QCPAbstractPlottable11addToLegendEv(ptr noundef align 8 dereferenceable_or_null(184) %18)
  store i1 %19, ptr %2, align 1
  br label %21

20:                                               ; preds = %12
  store i1 false, ptr %2, align 1
  br label %21

21:                                               ; preds = %20, %16, %8
  %22 = load i1, ptr %2, align 1
  ret i1 %22
}