; Function Attrs: mustprogress null_pointer_is_valid sspstrong uwtable
define noundef zeroext i1 @_ZN7IOGraph11addToLegendEv(ptr noundef readonly align 8 captures(none) dereferenceable_or_null(252) %0) local_unnamed_addr #2 align 2 {
  %2 = getelementptr inbounds nuw i8, ptr %0, i64 88
  %3 = load ptr, ptr %2, align 8
  %.not = icmp eq ptr %3, null
  br i1 %.not, label %4, label %.sink.split

4:                                                ; preds = %1
  %5 = getelementptr inbounds nuw i8, ptr %0, i64 96
  %6 = load ptr, ptr %5, align 8
  %.not4 = icmp eq ptr %6, null
  br i1 %.not4, label %8, label %.sink.split

.sink.split:                                      ; preds = %4, %1
  %.sink = phi ptr [ %3, %1 ], [ %6, %4 ]
  %7 = tail call noundef zeroext i1 @_ZN20QCPAbstractPlottable11addToLegendEv(ptr noundef nonnull align 8 dereferenceable_or_null(184) %.sink)
  br label %8

8:                                                ; preds = %.sink.split, %4
  %.0 = phi i1 [ false, %4 ], [ %7, %.sink.split ]
  ret i1 %.0
}